target datalayout = "e-m:e-p270:32:32-p271:32:32-p272:64:64-i64:64-i128:128-f80:128-n8:16:32:64-S128"
target triple = "x86_64-pc-linux-gnu"

%struct.b2WorldId = type { i16, i16 }
%struct.b2JointId = type { i32, i16, i16 }
%struct.b2BodyId = type { i32, i16, i16 }
%class.Draw = type { i8, ptr, ptr, ptr, ptr, ptr, ptr, ptr, ptr, %struct.b2DebugDraw, ptr, ptr, ptr, ptr }
%struct.b2DebugDraw = type { ptr, ptr, ptr, ptr, ptr, ptr, ptr, ptr, ptr, %struct.b2AABB, i8, i8, i8, i8, i8, i8, i8, i8, i8, i8, i8, i8, ptr }
%struct.b2AABB = type { %struct.b2Vec2, %struct.b2Vec2 }
%struct.b2Vec2 = type { float, float }
%struct.b2Profile = type { float, float, float, float, float, float, float, float, float, float, float, float, float, float, float, float, float, float, float, float, float, float }
%class.Sample = type { ptr, ptr, ptr, ptr, i32, i32, %struct.b2BodyId, i32, %struct.b2WorldId, %struct.b2JointId, i32, i32, %struct.b2Profile, %struct.b2Profile }
%struct.__va_list_tag = type { i32, i32, ptr, ptr }
%struct.ImVec2 = type { float, float }
%struct.ImVec4 = type { float, float, float, float }
%struct.ImColor = type { %struct.ImVec4 }

@g_draw = external global %class.Draw, align 8
@.str = private unnamed_addr constant [8 x i8] c"Overlay\00", align 1

; Function Attrs: mustprogress nounwind uwtable
define linkonce_odr dso_local void @_ZN6ImVec4C2Effff(ptr noundef nonnull align 4 dereferenceable(16) %0, float noundef %1, float noundef %2, float noundef %3, float noundef %4) unnamed_addr #7 comdat align 2 {
  %6 = alloca ptr, align 8
  %7 = alloca float, align 4
  %8 = alloca float, align 4
  %9 = alloca float, align 4
  %10 = alloca float, align 4
  store ptr %0, ptr %6, align 8, !tbaa !248
  store float %1, ptr %7, align 4, !tbaa !43
  store float %2, ptr %8, align 4, !tbaa !43
  store float %3, ptr %9, align 4, !tbaa !43
  store float %4, ptr %10, align 4, !tbaa !43
  %11 = load ptr, ptr %6, align 8
  %12 = getelementptr inbounds nuw %struct.ImVec4, ptr %11, i32 0, i32 0
  %13 = load float, ptr %7, align 4, !tbaa !43
  store float %13, ptr %12, align 4, !tbaa !250
  %14 = getelementptr inbounds nuw %struct.ImVec4, ptr %11, i32 0, i32 1
  %15 = load float, ptr %8, align 4, !tbaa !43
  store float %15, ptr %14, align 4, !tbaa !252
  %16 = getelementptr inbounds nuw %struct.ImVec4, ptr %11, i32 0, i32 2
  %17 = load float, ptr %9, align 4, !tbaa !43
  store float %17, ptr %16, align 4, !tbaa !253
  %18 = getelementptr inbounds nuw %struct.ImVec4, ptr %11, i32 0, i32 3
  %19 = load float, ptr %10, align 4, !tbaa !43
  store float %19, ptr %18, align 4, !tbaa !254
  ret void
}

; Function Attrs: inlinehint mustprogress nounwind uwtable
define linkonce_odr dso_local { <2 x float>, <2 x float> } @_ZNK7ImColorcv6ImVec4Ev(ptr noundef nonnull align 4 dereferenceable(16) %0) #3 comdat align 2 {
  %2 = alloca %struct.ImVec4, align 4
  %3 = alloca ptr, align 8
  store ptr %0, ptr %3, align 8, !tbaa !105
  %4 = load ptr, ptr %3, align 8
  %5 = getelementptr inbounds nuw %struct.ImColor, ptr %4, i32 0, i32 0
  call void @llvm.memcpy.p0.p0.i64(ptr align 4 %2, ptr align 4 %5, i64 16, i1 false), !tbaa.struct !78
  %6 = load { <2 x float>, <2 x float> }, ptr %2, align 4
  ret { <2 x float>, <2 x float> } %6
}

; Function Attrs: mustprogress uwtable
define linkonce_odr dso_local void @_ZN7ImColorC2Eiiii(ptr noundef nonnull align 4 dereferenceable(16) %0, i32 noundef %1, i32 noundef %2, i32 noundef %3, i32 noundef %4) unnamed_addr #5 comdat align 2 {
  %6 = alloca ptr, align 8
  %7 = alloca i32, align 4
  %8 = alloca i32, align 4
  %9 = alloca i32, align 4
  %10 = alloca i32, align 4
  store ptr %0, ptr %6, align 8, !tbaa !105
  store i32 %1, ptr %7, align 4, !tbaa !11
  store i32 %2, ptr %8, align 4, !tbaa !11
  store i32 %3, ptr %9, align 4, !tbaa !11
  store i32 %4, ptr %10, align 4, !tbaa !11
  %11 = load ptr, ptr %6, align 8
  %12 = getelementptr inbounds nuw %struct.ImColor, ptr %11, i32 0, i32 0
  %13 = load i32, ptr %7, align 4, !tbaa !11
  %14 = sitofp i32 %13 to float
  %15 = fmul float %14, 0x3F70101020000000
  %16 = load i32, ptr %8, align 4, !tbaa !11
  %17 = sitofp i32 %16 to float
  %18 = fmul float %17, 0x3F70101020000000
  %19 = load i32, ptr %9, align 4, !tbaa !11
  %20 = sitofp i32 %19 to float
  %21 = fmul float %20, 0x3F70101020000000
  %22 = load i32, ptr %10, align 4, !tbaa !11
  %23 = sitofp i32 %22 to float
  %24 = fmul float %23, 0x3F70101020000000
  call void @_ZN6ImVec4C2Effff(ptr noundef nonnull align 4 dereferenceable(16) %12, float noundef %15, float noundef %18, float noundef %21, float noundef %24)
  ret void
}

; Function Attrs: mustprogress nounwind uwtable
define linkonce_odr dso_local void @_ZN6ImVec2C2Eff(ptr noundef nonnull align 4 dereferenceable(8) %0, float noundef %1, float noundef %2) unnamed_addr #7 comdat align 2 {
  %4 = alloca ptr, align 8
  %5 = alloca float, align 4
  %6 = alloca float, align 4
  store ptr %0, ptr %4, align 8, !tbaa !100
  store float %1, ptr %5, align 4, !tbaa !43
  store float %2, ptr %6, align 4, !tbaa !43
  %7 = load ptr, ptr %4, align 8
  %8 = getelementptr inbounds nuw %struct.ImVec2, ptr %7, i32 0, i32 0
  %9 = load float, ptr %5, align 4, !tbaa !43
  store float %9, ptr %8, align 4, !tbaa !102
  %10 = getelementptr inbounds nuw %struct.ImVec2, ptr %7, i32 0, i32 1
  %11 = load float, ptr %6, align 4, !tbaa !43
  store float %11, ptr %10, align 4, !tbaa !104
  ret void
}

; Function Attrs: mustprogress uwtable
define dso_local void @_ZN6Sample12DrawTextLineEPKcz(ptr noundef nonnull align 8 dereferenceable(248) %0, ptr noundef %1, ...) #10 align 2 {
  %3 = alloca ptr, align 8
  %4 = alloca ptr, align 8
  %5 = alloca [1 x %struct.__va_list_tag], align 16
  %6 = alloca %struct.ImVec2, align 4
  %7 = alloca %struct.ImVec4, align 4
  %8 = alloca %struct.ImColor, align 4
  store ptr %0, ptr %3, align 8, !tbaa !15
  store ptr %1, ptr %4, align 8, !tbaa !70
  %9 = load ptr, ptr %3, align 8
  call void @llvm.lifetime.start.p0(i64 24, ptr %5) #19
  %10 = getelementptr inbounds [1 x %struct.__va_list_tag], ptr %5, i64 0, i64 0
  call void @llvm.va_start.p0(ptr %10)
  %11 = call noundef zeroext i1 @_ZN5ImGui5BeginEPKcPbi(ptr noundef @.str, ptr noundef null, i32 noundef 197193)
  %12 = load ptr, ptr getelementptr inbounds nuw (%class.Draw, ptr @g_draw, i32 0, i32 11), align 8, !tbaa !87
  call void @_ZN5ImGui8PushFontEP6ImFont(ptr noundef %12)
  call void @llvm.lifetime.start.p0(i64 8, ptr %6) #19
  %13 = getelementptr inbounds nuw %class.Sample, ptr %9, i32 0, i32 7
  %14 = load i32, ptr %13, align 8, !tbaa !38
  %15 = sitofp i32 %14 to float
  call void @_ZN6ImVec2C2Eff(ptr noundef nonnull align 4 dereferenceable(8) %6, float noundef 5.000000e+00, float noundef %15)
  call void @_ZN5ImGui12SetCursorPosERK6ImVec2(ptr noundef nonnull align 4 dereferenceable(8) %6)
  call void @llvm.lifetime.end.p0(i64 8, ptr %6) #19
  call void @llvm.lifetime.start.p0(i64 16, ptr %7) #19
  call void @llvm.lifetime.start.p0(i64 16, ptr %8) #19
  call void @_ZN7ImColorC2Eiiii(ptr noundef nonnull align 4 dereferenceable(16) %8, i32 noundef 230, i32 noundef 153, i32 noundef 153, i32 noundef 255)
  %16 = call { <2 x float>, <2 x float> } @_ZNK7ImColorcv6ImVec4Ev(ptr noundef nonnull align 4 dereferenceable(16) %8)
  %17 = getelementptr inbounds nuw { <2 x float>, <2 x float> }, ptr %7, i32 0, i32 0
  %18 = extractvalue { <2 x float>, <2 x float> } %16, 0
  store <2 x float> %18, ptr %17, align 4
  %19 = getelementptr inbounds nuw { <2 x float>, <2 x float> }, ptr %7, i32 0, i32 1
  %20 = extractvalue { <2 x float>, <2 x float> } %16, 1
  store <2 x float> %20, ptr %19, align 4
  %21 = load ptr, ptr %4, align 8, !tbaa !70
  %22 = getelementptr inbounds [1 x %struct.__va_list_tag], ptr %5, i64 0, i64 0
  call void @_ZN5ImGui12TextColoredVERK6ImVec4PKcP13__va_list_tag(ptr noundef nonnull align 4 dereferenceable(16) %7, ptr noundef %21, ptr noundef %22)
  call void @llvm.lifetime.end.p0(i64 16, ptr %8) #19
  call void @llvm.lifetime.end.p0(i64 16, ptr %7) #19
  call void @_ZN5ImGui7PopFontEv()
  call void @_ZN5ImGui3EndEv()
  %23 = getelementptr inbounds [1 x %struct.__va_list_tag], ptr %5, i64 0, i64 0
  call void @llvm.va_end.p0(ptr %23)
  %24 = getelementptr inbounds nuw %class.Sample, ptr %9, i32 0, i32 11
  %25 = load i32, ptr %24, align 4, !tbaa !39
  %26 = getelementptr inbounds nuw %class.Sample, ptr %9, i32 0, i32 7
  %27 = load i32, ptr %26, align 8, !tbaa !38
  %28 = add nsw i32 %27, %25
  store i32 %28, ptr %26, align 8, !tbaa !38
  call void @llvm.lifetime.end.p0(i64 24, ptr %5) #19
  ret void
}