; Function Attrs: mustprogress uwtable
define dso_local void @_ZN6Sample12DrawTextLineEPKcz(ptr noundef nonnull align 8 captures(none) dereferenceable(248) %0, ptr noundef %1, ...) local_unnamed_addr #5 align 2 {
  %3 = alloca [1 x %struct.__va_list_tag], align 16
  %4 = alloca %struct.ImVec2, align 4
  %5 = alloca %struct.ImVec4, align 8
  call void @llvm.lifetime.start.p0(i64 24, ptr nonnull %3) #23
  call void @llvm.va_start.p0(ptr nonnull %3)
  %6 = call noundef zeroext i1 @_ZN5ImGui5BeginEPKcPbi(ptr noundef nonnull @.str, ptr noundef null, i32 noundef 197193)
  %7 = load ptr, ptr getelementptr inbounds nuw (i8, ptr @g_draw, i64 192), align 8, !tbaa !68
  call void @_ZN5ImGui8PushFontEP6ImFont(ptr noundef %7)
  call void @llvm.lifetime.start.p0(i64 8, ptr nonnull %4) #23
  %8 = getelementptr inbounds nuw i8, ptr %0, i64 48
  %9 = load i32, ptr %8, align 8, !tbaa !42
  %10 = sitofp i32 %9 to float
  store float 5.000000e+00, ptr %4, align 4, !tbaa !81
  %11 = getelementptr inbounds nuw i8, ptr %4, i64 4
  store float %10, ptr %11, align 4, !tbaa !83
  call void @_ZN5ImGui12SetCursorPosERK6ImVec2(ptr noundef nonnull align 4 dereferenceable(8) %4)
  call void @llvm.lifetime.end.p0(i64 8, ptr nonnull %4) #23
  call void @llvm.lifetime.start.p0(i64 16, ptr nonnull %5) #23
  store <2 x float> <float 0x3FECDCDD00000000, float 0x3FE3333340000000>, ptr %5, align 8
  %12 = getelementptr inbounds nuw i8, ptr %5, i64 8
  store <2 x float> <float 0x3FE3333340000000, float 1.000000e+00>, ptr %12, align 8
  call void @_ZN5ImGui12TextColoredVERK6ImVec4PKcP13__va_list_tag(ptr noundef nonnull align 4 dereferenceable(16) %5, ptr noundef %1, ptr noundef nonnull %3)
  call void @llvm.lifetime.end.p0(i64 16, ptr nonnull %5) #23
  call void @_ZN5ImGui7PopFontEv()
  call void @_ZN5ImGui3EndEv()
  call void @llvm.va_end.p0(ptr nonnull %3)
  %13 = getelementptr inbounds nuw i8, ptr %0, i64 68
  %14 = load i32, ptr %13, align 4, !tbaa !43
  %15 = load i32, ptr %8, align 8, !tbaa !42
  %16 = add nsw i32 %15, %14
  store i32 %16, ptr %8, align 8, !tbaa !42
  call void @llvm.lifetime.end.p0(i64 24, ptr nonnull %3) #23
  ret void
}